target datalayout = "e-m:e-p270:32:32-p271:32:32-p272:64:64-i64:64-i128:128-f80:128-n8:16:32:64-S128"
target triple = "x86_64-pc-linux-gnu"

%"class.sat::ddfw" = type <{ %"struct.sat::ddfw::config", %class.reslimit, %class.vector.1, %class.svector.2, %class.svector.4, %class.svector.6, %class.svector.6, %class.svector.8, i32, [4 x i8], %class.vector.10, %class.svector.11, %class.svector.11, i32, i32, i32, [4 x i8], %class.indexed_uint_set, %class.indexed_uint_set, %class.random_gen, [4 x i8], i64, i32, i32, i32, i32, i64, i64, i64, i64, i64, i32, i32, %class.u_map, %class.stopwatch, %class.svector.11, i8, [7 x i8], %class.scoped_ptr, %"class.std::function", i32, [4 x i8], %class.tracked_uint_set, %class.svector.11, i8, i8, [6 x i8] }>
%"struct.sat::ddfw::config" = type { i32, i32, i32, i32, i32, i32, double }
%class.reslimit = type { %"struct.std::atomic", i8, i64, i64, %class.svector, %class.ptr_vector }
%"struct.std::atomic" = type { %"struct.std::__atomic_base" }
%"struct.std::__atomic_base" = type { i32 }
%class.svector = type { %class.vector }
%class.vector = type { ptr }
%class.ptr_vector = type { %class.vector.0 }
%class.vector.0 = type { ptr }
%class.vector.1 = type { ptr }
%class.svector.2 = type { %class.vector.3 }
%class.vector.3 = type { ptr }
%class.svector.4 = type { %class.vector.5 }
%class.vector.5 = type { ptr }
%class.svector.6 = type { %class.vector.7 }
%class.vector.7 = type { ptr }
%class.svector.8 = type { %class.vector.9 }
%class.vector.9 = type { ptr }
%class.vector.10 = type { ptr }
%class.indexed_uint_set = type { i32, %class.svector.11, %class.svector.11 }
%class.random_gen = type { i32 }
%class.u_map = type { %class.map }
%class.map = type { %class.table2map }
%class.table2map = type { %class.core_hashtable }
%class.core_hashtable = type <{ ptr, i32, i32, i32, [4 x i8] }>
%class.stopwatch = type <{ %"class.std::chrono::time_point", %"class.std::chrono::duration", i8, [7 x i8] }>
%"class.std::chrono::time_point" = type { %"class.std::chrono::duration" }
%"class.std::chrono::duration" = type { i64 }
%class.scoped_ptr = type { ptr }
%"class.std::function" = type { %"class.std::_Function_base", ptr }
%"class.std::_Function_base" = type { %"union.std::_Any_data", ptr }
%"union.std::_Any_data" = type { %"union.std::_Nocopy_types" }
%"union.std::_Nocopy_types" = type { { i64, i64 } }
%class.tracked_uint_set = type { %class.svector.13, %class.svector.11 }
%class.svector.13 = type { %class.vector.14 }
%class.vector.14 = type { ptr }
%class.svector.11 = type { %class.vector.12 }
%class.vector.12 = type { ptr }
%"struct.sat::ddfw::var_info" = type { i8, double, double, i32, i32, %class.ema }
%class.ema = type { double, double, double, i32, i32 }

; Function Attrs: mustprogress nounwind uwtable
define linkonce_odr hidden void @_ZN3emaC2Ed(ptr noundef nonnull align 8 dereferenceable(32) %0, double noundef %1) unnamed_addr #4 comdat align 2 {
  %3 = alloca ptr, align 8
  %4 = alloca double, align 8
  store ptr %0, ptr %3, align 8, !tbaa !190
  store double %1, ptr %4, align 8, !tbaa !113
  %5 = load ptr, ptr %3, align 8
  %6 = getelementptr inbounds nuw %class.ema, ptr %5, i32 0, i32 0
  %7 = load double, ptr %4, align 8, !tbaa !113
  store double %7, ptr %6, align 8, !tbaa !297
  %8 = getelementptr inbounds nuw %class.ema, ptr %5, i32 0, i32 1
  store double 1.000000e+00, ptr %8, align 8, !tbaa !296
  %9 = getelementptr inbounds nuw %class.ema, ptr %5, i32 0, i32 2
  store double 0.000000e+00, ptr %9, align 8, !tbaa !192
  %10 = getelementptr inbounds nuw %class.ema, ptr %5, i32 0, i32 3
  store i32 0, ptr %10, align 8, !tbaa !299
  %11 = getelementptr inbounds nuw %class.ema, ptr %5, i32 0, i32 4
  store i32 0, ptr %11, align 4, !tbaa !298
  ret void
}

; Function Attrs: mustprogress uwtable
define linkonce_odr hidden void @_ZN3sat4ddfw8var_infoC2Ev(ptr noundef nonnull align 8 dereferenceable(64) %0) unnamed_addr #6 comdat align 2 {
  %2 = alloca ptr, align 8
  store ptr %0, ptr %2, align 8, !tbaa !199
  %3 = load ptr, ptr %2, align 8
  %4 = getelementptr inbounds nuw %"struct.sat::ddfw::var_info", ptr %3, i32 0, i32 0
  store i8 0, ptr %4, align 8, !tbaa !200
  %5 = getelementptr inbounds nuw %"struct.sat::ddfw::var_info", ptr %3, i32 0, i32 1
  store double 0.000000e+00, ptr %5, align 8, !tbaa !161
  %6 = getelementptr inbounds nuw %"struct.sat::ddfw::var_info", ptr %3, i32 0, i32 2
  store double 0.000000e+00, ptr %6, align 8, !tbaa !363
  %7 = getelementptr inbounds nuw %"struct.sat::ddfw::var_info", ptr %3, i32 0, i32 3
  store i32 0, ptr %7, align 8, !tbaa !364
  %8 = getelementptr inbounds nuw %"struct.sat::ddfw::var_info", ptr %3, i32 0, i32 4
  store i32 0, ptr %8, align 4, !tbaa !365
  %9 = getelementptr inbounds nuw %"struct.sat::ddfw::var_info", ptr %3, i32 0, i32 5
  call void @_ZN3emaC2Ed(ptr noundef nonnull align 8 dereferenceable(32) %9, double noundef 1.000000e-05)
  ret void
}

; Function Attrs: mustprogress nounwind uwtable
define linkonce_odr hidden noundef i32 @_ZNK6vectorIN3sat4ddfw8var_infoELb0EjE8capacityEv(ptr noundef nonnull align 8 dereferenceable(8) %0) #4 comdat align 2 {
  %2 = alloca i32, align 4
  %3 = alloca ptr, align 8
  store ptr %0, ptr %3, align 8, !tbaa !29
  %4 = load ptr, ptr %3, align 8
  %5 = getelementptr inbounds nuw %class.vector.5, ptr %4, i32 0, i32 0
  %6 = load ptr, ptr %5, align 8, !tbaa !174
  %7 = icmp eq ptr %6, null
  br i1 %7, label %8, label %9

8:                                                ; preds = %1
  store i32 0, ptr %2, align 4
  br label %14

9:                                                ; preds = %1
  %10 = getelementptr inbounds nuw %class.vector.5, ptr %4, i32 0, i32 0
  %11 = load ptr, ptr %10, align 8, !tbaa !174
  %12 = getelementptr inbounds i32, ptr %11, i64 -2
  %13 = load i32, ptr %12, align 4, !tbaa !37
  store i32 %13, ptr %2, align 4
  br label %14

14:                                               ; preds = %9, %8
  %15 = load i32, ptr %2, align 4
  ret i32 %15
}

; Function Attrs: mustprogress nounwind uwtable
define linkonce_odr hidden void @_ZN6vectorIN3sat4ddfw8var_infoELb0EjE6shrinkEj(ptr noundef nonnull align 8 dereferenceable(8) %0, i32 noundef %1) #4 comdat align 2 {
  %3 = alloca ptr, align 8
  %4 = alloca i32, align 4
  store ptr %0, ptr %3, align 8, !tbaa !29
  store i32 %1, ptr %4, align 4, !tbaa !37
  %5 = load ptr, ptr %3, align 8
  %6 = getelementptr inbounds nuw %class.vector.5, ptr %5, i32 0, i32 0
  %7 = load ptr, ptr %6, align 8, !tbaa !174
  %8 = icmp ne ptr %7, null
  br i1 %8, label %9, label %14

9:                                                ; preds = %2
  %10 = load i32, ptr %4, align 4, !tbaa !37
  %11 = getelementptr inbounds nuw %class.vector.5, ptr %5, i32 0, i32 0
  %12 = load ptr, ptr %11, align 8, !tbaa !174
  %13 = getelementptr inbounds i32, ptr %12, i64 -1
  store i32 %10, ptr %13, align 4, !tbaa !37
  br label %15

14:                                               ; preds = %2
  br label %15

15:                                               ; preds = %14, %9
  ret void
}

; Function Attrs: mustprogress uwtable
define linkonce_odr hidden void @_ZN6vectorIN3sat4ddfw8var_infoELb0EjE6resizeEj(ptr noundef nonnull align 8 dereferenceable(8) %0, i32 noundef %1) #6 comdat align 2 {
  %3 = alloca ptr, align 8
  %4 = alloca i32, align 4
  %5 = alloca i32, align 4
  %6 = alloca i32, align 4
  %7 = alloca ptr, align 8
  %8 = alloca ptr, align 8
  store ptr %0, ptr %3, align 8, !tbaa !29
  store i32 %1, ptr %4, align 4, !tbaa !37
  %9 = load ptr, ptr %3, align 8
  call void @llvm.lifetime.start.p0(i64 4, ptr %5) #3
  %10 = call noundef i32 @_ZNK6vectorIN3sat4ddfw8var_infoELb0EjE4sizeEv(ptr noundef nonnull align 8 dereferenceable(8) %9)
  store i32 %10, ptr %5, align 4, !tbaa !37
  %11 = load i32, ptr %4, align 4, !tbaa !37
  %12 = load i32, ptr %5, align 4, !tbaa !37
  %13 = icmp ule i32 %11, %12
  br i1 %13, label %14, label %16

14:                                               ; preds = %2
  %15 = load i32, ptr %4, align 4, !tbaa !37
  call void @_ZN6vectorIN3sat4ddfw8var_infoELb0EjE6shrinkEj(ptr noundef nonnull align 8 dereferenceable(8) %9, i32 noundef %15)
  store i32 1, ptr %6, align 4
  br label %47

16:                                               ; preds = %2
  br label %17

17:                                               ; preds = %21, %16
  %18 = load i32, ptr %4, align 4, !tbaa !37
  %19 = call noundef i32 @_ZNK6vectorIN3sat4ddfw8var_infoELb0EjE8capacityEv(ptr noundef nonnull align 8 dereferenceable(8) %9)
  %20 = icmp ugt i32 %18, %19
  br i1 %20, label %21, label %22

21:                                               ; preds = %17
  call void @_ZN6vectorIN3sat4ddfw8var_infoELb0EjE13expand_vectorEv(ptr noundef nonnull align 8 dereferenceable(8) %9)
  br label %17, !llvm.loop !361

22:                                               ; preds = %17
  %23 = load i32, ptr %4, align 4, !tbaa !37
  %24 = getelementptr inbounds nuw %class.vector.5, ptr %9, i32 0, i32 0
  %25 = load ptr, ptr %24, align 8, !tbaa !174
  %26 = getelementptr inbounds i32, ptr %25, i64 -1
  store i32 %23, ptr %26, align 4, !tbaa !37
  call void @llvm.lifetime.start.p0(i64 8, ptr %7) #3
  %27 = getelementptr inbounds nuw %class.vector.5, ptr %9, i32 0, i32 0
  %28 = load ptr, ptr %27, align 8, !tbaa !174
  %29 = load i32, ptr %5, align 4, !tbaa !37
  %30 = zext i32 %29 to i64
  %31 = getelementptr inbounds nuw %"struct.sat::ddfw::var_info", ptr %28, i64 %30
  store ptr %31, ptr %7, align 8, !tbaa !199
  call void @llvm.lifetime.start.p0(i64 8, ptr %8) #3
  %32 = getelementptr inbounds nuw %class.vector.5, ptr %9, i32 0, i32 0
  %33 = load ptr, ptr %32, align 8, !tbaa !174
  %34 = load i32, ptr %4, align 4, !tbaa !37
  %35 = zext i32 %34 to i64
  %36 = getelementptr inbounds nuw %"struct.sat::ddfw::var_info", ptr %33, i64 %35
  store ptr %36, ptr %8, align 8, !tbaa !199
  br label %37

37:                                               ; preds = %43, %22
  %38 = load ptr, ptr %7, align 8, !tbaa !199
  %39 = load ptr, ptr %8, align 8, !tbaa !199
  %40 = icmp ne ptr %38, %39
  br i1 %40, label %41, label %46

41:                                               ; preds = %37
  %42 = load ptr, ptr %7, align 8, !tbaa !199
  call void @_ZN3sat4ddfw8var_infoC2Ev(ptr noundef nonnull align 8 dereferenceable(64) %42)
  br label %43

43:                                               ; preds = %41
  %44 = load ptr, ptr %7, align 8, !tbaa !199
  %45 = getelementptr inbounds nuw %"struct.sat::ddfw::var_info", ptr %44, i32 1
  store ptr %45, ptr %7, align 8, !tbaa !199
  br label %37, !llvm.loop !362

46:                                               ; preds = %37
  call void @llvm.lifetime.end.p0(i64 8, ptr %8) #3
  call void @llvm.lifetime.end.p0(i64 8, ptr %7) #3
  store i32 0, ptr %6, align 4
  br label %47

47:                                               ; preds = %46, %14
  call void @llvm.lifetime.end.p0(i64 4, ptr %5) #3
  %48 = load i32, ptr %6, align 4
  switch i32 %48, label %50 [
    i32 0, label %49
    i32 1, label %49
  ]

49:                                               ; preds = %47, %47
  ret void

50:                                               ; preds = %47
  unreachable
}

; Function Attrs: mustprogress uwtable
define linkonce_odr hidden void @_ZN6vectorIN3sat4ddfw8var_infoELb0EjE7reserveEj(ptr noundef nonnull align 8 dereferenceable(8) %0, i32 noundef %1) #6 comdat align 2 {
  %3 = alloca ptr, align 8
  %4 = alloca i32, align 4
  store ptr %0, ptr %3, align 8, !tbaa !29
  store i32 %1, ptr %4, align 4, !tbaa !37
  %5 = load ptr, ptr %3, align 8
  %6 = load i32, ptr %4, align 4, !tbaa !37
  %7 = call noundef i32 @_ZNK6vectorIN3sat4ddfw8var_infoELb0EjE4sizeEv(ptr noundef nonnull align 8 dereferenceable(8) %5)
  %8 = icmp ugt i32 %6, %7
  br i1 %8, label %9, label %11

9:                                                ; preds = %2
  %10 = load i32, ptr %4, align 4, !tbaa !37
  call void @_ZN6vectorIN3sat4ddfw8var_infoELb0EjE6resizeEj(ptr noundef nonnull align 8 dereferenceable(8) %5, i32 noundef %10)
  br label %11

11:                                               ; preds = %9, %2
  ret void
}

; Function Attrs: mustprogress nounwind uwtable
define linkonce_odr hidden noundef i32 @_ZNK6vectorIN3sat4ddfw8var_infoELb0EjE4sizeEv(ptr noundef nonnull align 8 dereferenceable(8) %0) #4 comdat align 2 {
  %2 = alloca i32, align 4
  %3 = alloca ptr, align 8
  store ptr %0, ptr %3, align 8, !tbaa !29
  %4 = load ptr, ptr %3, align 8
  %5 = getelementptr inbounds nuw %class.vector.5, ptr %4, i32 0, i32 0
  %6 = load ptr, ptr %5, align 8, !tbaa !174
  %7 = icmp eq ptr %6, null
  br i1 %7, label %8, label %9

8:                                                ; preds = %1
  store i32 0, ptr %2, align 4
  br label %14

9:                                                ; preds = %1
  %10 = getelementptr inbounds nuw %class.vector.5, ptr %4, i32 0, i32 0
  %11 = load ptr, ptr %10, align 8, !tbaa !174
  %12 = getelementptr inbounds i32, ptr %11, i64 -1
  %13 = load i32, ptr %12, align 4, !tbaa !37
  store i32 %13, ptr %2, align 4
  br label %14

14:                                               ; preds = %9, %8
  %15 = load i32, ptr %2, align 4
  ret i32 %15
}

; Function Attrs: mustprogress uwtable
define hidden noundef i32 @_ZN3sat4ddfw7add_varEv(ptr noundef nonnull align 8 dereferenceable(434) %0) #6 align 2 {
  %2 = alloca ptr, align 8
  %3 = alloca i32, align 4
  store ptr %0, ptr %2, align 8, !tbaa !3
  %4 = load ptr, ptr %2, align 8
  call void @llvm.lifetime.start.p0(i64 4, ptr %3) #3
  %5 = getelementptr inbounds nuw %"class.sat::ddfw", ptr %4, i32 0, i32 4
  %6 = call noundef i32 @_ZNK6vectorIN3sat4ddfw8var_infoELb0EjE4sizeEv(ptr noundef nonnull align 8 dereferenceable(8) %5)
  store i32 %6, ptr %3, align 4, !tbaa !37
  %7 = getelementptr inbounds nuw %"class.sat::ddfw", ptr %4, i32 0, i32 4
  %8 = load i32, ptr %3, align 4, !tbaa !37
  %9 = add i32 %8, 1
  call void @_ZN6vectorIN3sat4ddfw8var_infoELb0EjE7reserveEj(ptr noundef nonnull align 8 dereferenceable(8) %7, i32 noundef %9)
  %10 = load i32, ptr %3, align 4, !tbaa !37
  call void @llvm.lifetime.end.p0(i64 4, ptr %3) #3
  ret i32 %10
}