; Function Attrs: mustprogress uwtable
define hidden noundef i32 @_ZN3sat4ddfw7add_varEv(ptr noundef nonnull align 8 dereferenceable(434) %0) local_unnamed_addr #4 align 2 {
  %2 = getelementptr inbounds nuw i8, ptr %0, i64 88
  %3 = load ptr, ptr %2, align 8, !tbaa !34
  %4 = icmp eq ptr %3, null
  br i1 %4, label %_ZNK6vectorIN3sat4ddfw8var_infoELb0EjE4sizeEv.exit.i.i.preheader, label %_ZNK6vectorIN3sat4ddfw8var_infoELb0EjE4sizeEv.exit.thread.i

_ZNK6vectorIN3sat4ddfw8var_infoELb0EjE4sizeEv.exit.thread.i: ; preds = %1
  %5 = getelementptr inbounds i8, ptr %3, i64 -4
  %6 = load i32, ptr %5, align 4, !tbaa !26
  %7 = add nuw i32 %6, 1
  %.not = icmp eq i32 %6, -1
  br i1 %.not, label %_ZN6vectorIN3sat4ddfw8var_infoELb0EjE7reserveEj.exit, label %_ZNK6vectorIN3sat4ddfw8var_infoELb0EjE4sizeEv.exit.i.i.preheader

_ZNK6vectorIN3sat4ddfw8var_infoELb0EjE4sizeEv.exit.i.i.preheader: ; preds = %1, %_ZNK6vectorIN3sat4ddfw8var_infoELb0EjE4sizeEv.exit.thread.i
  %.ph = phi i32 [ %7, %_ZNK6vectorIN3sat4ddfw8var_infoELb0EjE4sizeEv.exit.thread.i ], [ 1, %1 ]
  %.ph7 = phi ptr [ %3, %_ZNK6vectorIN3sat4ddfw8var_infoELb0EjE4sizeEv.exit.thread.i ], [ null, %1 ]
  %.0.i16.i.i.ph = phi i32 [ %6, %_ZNK6vectorIN3sat4ddfw8var_infoELb0EjE4sizeEv.exit.thread.i ], [ 0, %1 ]
  br label %_ZNK6vectorIN3sat4ddfw8var_infoELb0EjE4sizeEv.exit.i.i

_ZNK6vectorIN3sat4ddfw8var_infoELb0EjE4sizeEv.exit.i.i: ; preds = %_ZNK6vectorIN3sat4ddfw8var_infoELb0EjE4sizeEv.exit.i.i.preheader, %_ZNK6vectorIN3sat4ddfw8var_infoELb0EjE8capacityEv.exit.thread.i.i
  %8 = phi ptr [ %.pr.pre.i.i, %_ZNK6vectorIN3sat4ddfw8var_infoELb0EjE8capacityEv.exit.thread.i.i ], [ %.ph7, %_ZNK6vectorIN3sat4ddfw8var_infoELb0EjE4sizeEv.exit.i.i.preheader ]
  %9 = icmp eq ptr %8, null
  br i1 %9, label %_ZNK6vectorIN3sat4ddfw8var_infoELb0EjE8capacityEv.exit.thread.i.i, label %_ZNK6vectorIN3sat4ddfw8var_infoELb0EjE8capacityEv.exit.i.i

_ZNK6vectorIN3sat4ddfw8var_infoELb0EjE8capacityEv.exit.i.i: ; preds = %_ZNK6vectorIN3sat4ddfw8var_infoELb0EjE4sizeEv.exit.i.i
  %10 = getelementptr inbounds i8, ptr %8, i64 -8
  %11 = load i32, ptr %10, align 4, !tbaa !26
  %12 = icmp ugt i32 %.ph, %11
  br i1 %12, label %_ZNK6vectorIN3sat4ddfw8var_infoELb0EjE8capacityEv.exit.thread.i.i, label %.lr.ph.preheader.i.i

_ZNK6vectorIN3sat4ddfw8var_infoELb0EjE8capacityEv.exit.thread.i.i: ; preds = %_ZNK6vectorIN3sat4ddfw8var_infoELb0EjE8capacityEv.exit.i.i, %_ZNK6vectorIN3sat4ddfw8var_infoELb0EjE4sizeEv.exit.i.i
  tail call void @_ZN6vectorIN3sat4ddfw8var_infoELb0EjE13expand_vectorEv(ptr noundef nonnull align 8 dereferenceable(8) %2)
  %.pr.pre.i.i = load ptr, ptr %2, align 8, !tbaa !34
  br label %_ZNK6vectorIN3sat4ddfw8var_infoELb0EjE4sizeEv.exit.i.i, !llvm.loop !173

.lr.ph.preheader.i.i:                             ; preds = %_ZNK6vectorIN3sat4ddfw8var_infoELb0EjE8capacityEv.exit.i.i
  %13 = getelementptr inbounds i8, ptr %8, i64 -4
  store i32 %.ph, ptr %13, align 4, !tbaa !26
  %14 = zext i32 %.ph to i64
  %15 = getelementptr inbounds nuw %"struct.sat::ddfw::var_info", ptr %8, i64 %14
  %16 = zext i32 %.0.i16.i.i.ph to i64
  %17 = getelementptr inbounds nuw %"struct.sat::ddfw::var_info", ptr %8, i64 %16
  br label %.lr.ph.i.i

.lr.ph.i.i:                                       ; preds = %.lr.ph.i.i, %.lr.ph.preheader.i.i
  %.019.i.i = phi ptr [ %22, %.lr.ph.i.i ], [ %17, %.lr.ph.preheader.i.i ]
  store i8 0, ptr %.019.i.i, align 8, !tbaa !142
  %18 = getelementptr inbounds nuw i8, ptr %.019.i.i, i64 8
  %19 = getelementptr inbounds nuw i8, ptr %.019.i.i, i64 32
  tail call void @llvm.memset.p0.i64(ptr noundef nonnull align 8 dereferenceable(24) %18, i8 0, i64 24, i1 false)
  store double 1.000000e-05, ptr %19, align 8, !tbaa !165
  %20 = getelementptr inbounds nuw i8, ptr %.019.i.i, i64 40
  store double 1.000000e+00, ptr %20, align 8, !tbaa !163
  %21 = getelementptr inbounds nuw i8, ptr %.019.i.i, i64 48
  tail call void @llvm.memset.p0.i64(ptr noundef nonnull align 8 dereferenceable(16) %21, i8 0, i64 16, i1 false)
  %22 = getelementptr inbounds nuw i8, ptr %.019.i.i, i64 64
  %.not12.i.i = icmp eq ptr %22, %15
  br i1 %.not12.i.i, label %_ZN6vectorIN3sat4ddfw8var_infoELb0EjE7reserveEj.exit, label %.lr.ph.i.i, !llvm.loop !174

_ZN6vectorIN3sat4ddfw8var_infoELb0EjE7reserveEj.exit: ; preds = %.lr.ph.i.i, %_ZNK6vectorIN3sat4ddfw8var_infoELb0EjE4sizeEv.exit.thread.i
  %.0.i3 = phi i32 [ -1, %_ZNK6vectorIN3sat4ddfw8var_infoELb0EjE4sizeEv.exit.thread.i ], [ %.0.i16.i.i.ph, %.lr.ph.i.i ]
  ret i32 %.0.i3
}